target datalayout = "e-m:e-p270:32:32-p271:32:32-p272:64:64-i64:64-i128:128-f80:128-n8:16:32:64-S128"
target triple = "x86_64-unknown-linux-gnu"

%struct.double_double = type { double, double }

; Function Attrs: mustprogress nounwind uwtable
define hidden noundef zeroext i1 @_ZgeRK13double_doubleS1_(ptr noundef nonnull align 8 dereferenceable(16) %lhs, ptr noundef nonnull align 8 dereferenceable(16) %rhs) #4 {
entry:
  %lhs.addr = alloca ptr, align 8
  %rhs.addr = alloca ptr, align 8
  store ptr %lhs, ptr %lhs.addr, align 8
  store ptr %rhs, ptr %rhs.addr, align 8
  %0 = load ptr, ptr %lhs.addr, align 8
  %a = getelementptr inbounds %struct.double_double, ptr %0, i32 0, i32 0
  %1 = load double, ptr %a, align 8
  %2 = load ptr, ptr %lhs.addr, align 8
  %b = getelementptr inbounds %struct.double_double, ptr %2, i32 0, i32 1
  %3 = load double, ptr %b, align 8
  %add = fadd double %1, %3
  %4 = load ptr, ptr %rhs.addr, align 8
  %a1 = getelementptr inbounds %struct.double_double, ptr %4, i32 0, i32 0
  %5 = load double, ptr %a1, align 8
  %6 = load ptr, ptr %rhs.addr, align 8
  %b2 = getelementptr inbounds %struct.double_double, ptr %6, i32 0, i32 1
  %7 = load double, ptr %b2, align 8
  %add3 = fadd double %5, %7
  %cmp = fcmp oge double %add, %add3
  ret i1 %cmp
}