; Function Attrs: mustprogress nofree norecurse nosync nounwind willreturn memory(argmem: read) uwtable
define hidden noundef zeroext i1 @_ZgeRK13double_doubleS1_(ptr nocapture noundef nonnull readonly align 8 dereferenceable(16) %lhs, ptr nocapture noundef nonnull readonly align 8 dereferenceable(16) %rhs) local_unnamed_addr #12 {
entry:
  %0 = load double, ptr %lhs, align 8
  %b = getelementptr inbounds i8, ptr %lhs, i64 8
  %1 = load double, ptr %b, align 8
  %add = fadd double %0, %1
  %2 = load double, ptr %rhs, align 8
  %b2 = getelementptr inbounds i8, ptr %rhs, i64 8
  %3 = load double, ptr %b2, align 8
  %add3 = fadd double %2, %3
  %cmp = fcmp oge double %add, %add3
  ret i1 %cmp
}